target datalayout = "e-m:e-p270:32:32-p271:32:32-p272:64:64-i64:64-i128:128-f80:128-n8:16:32:64-S128"
target triple = "x86_64-pc-linux-gnu"

%struct.loopargs_st = type { ptr, ptr, ptr, ptr, ptr, ptr, ptr, [16 x i8], i64, i64, i64, [7 x ptr], [7 x ptr], [7 x ptr], [7 x ptr], [2 x ptr], [2 x ptr], [22 x ptr], [22 x ptr], [24 x ptr], [2 x ptr], [2 x ptr], [1 x ptr], [1 x ptr], [1 x ptr], ptr, ptr, [24 x i64], [5 x ptr], ptr, ptr, ptr, ptr, [111 x ptr], [111 x ptr], [111 x ptr], [111 x i64], [111 x i64], [111 x ptr], [111 x ptr], [111 x ptr], [111 x ptr], [111 x ptr], [111 x ptr], [111 x i64], [111 x i64], [111 x ptr] }

@bio_err = external global ptr, align 8
@testmode = internal global i32 0, align 4
@.str.112 = private unnamed_addr constant [24 x i8] c"../openssl/apps/speed.c\00", align 1
@testnum = internal global i32 0, align 4
@testmoderesult = internal global i32 0, align 4
@run = internal global i32 0, align 4
@.str.466 = private unnamed_addr constant [14 x i8] c"sig sign loop\00", align 1
@.str.467 = private unnamed_addr constant [30 x i8] c"SIG sign failure at count %d\0A\00", align 1

; Function Attrs: nounwind uwtable
define internal void @dofail() #0 {
  %1 = load ptr, ptr @bio_err, align 8, !tbaa !53
  call void @ERR_print_errors(ptr noundef %1)
  store i32 1, ptr @testmoderesult, align 4, !tbaa !4
  ret void
}

; Function Attrs: nounwind uwtable
define internal i32 @SIG_sign_loop(ptr noundef %0) #0 {
  %2 = alloca ptr, align 8
  %3 = alloca ptr, align 8
  %4 = alloca ptr, align 8
  %5 = alloca ptr, align 8
  %6 = alloca [32 x i8], align 16
  %7 = alloca i64, align 8
  %8 = alloca i32, align 4
  %9 = alloca i64, align 8
  %10 = alloca i32, align 4
  %11 = alloca i32, align 4
  store ptr %0, ptr %2, align 8, !tbaa !115
  call void @llvm.lifetime.start.p0(i64 8, ptr %3) #11
  %12 = load ptr, ptr %2, align 8, !tbaa !115
  %13 = load ptr, ptr %12, align 8, !tbaa !37
  store ptr %13, ptr %3, align 8, !tbaa !37
  call void @llvm.lifetime.start.p0(i64 8, ptr %4) #11
  %14 = load ptr, ptr %3, align 8, !tbaa !37
  %15 = getelementptr inbounds nuw %struct.loopargs_st, ptr %14, i32 0, i32 42
  %16 = load i32, ptr @testnum, align 4, !tbaa !4
  %17 = zext i32 %16 to i64
  %18 = getelementptr inbounds nuw [111 x ptr], ptr %15, i64 0, i64 %17
  %19 = load ptr, ptr %18, align 8, !tbaa !27
  store ptr %19, ptr %4, align 8, !tbaa !27
  call void @llvm.lifetime.start.p0(i64 8, ptr %5) #11
  %20 = load ptr, ptr %3, align 8, !tbaa !37
  %21 = getelementptr inbounds nuw %struct.loopargs_st, ptr %20, i32 0, i32 44
  %22 = load i32, ptr @testnum, align 4, !tbaa !4
  %23 = zext i32 %22 to i64
  %24 = getelementptr inbounds nuw [111 x i64], ptr %21, i64 0, i64 %23
  %25 = load i64, ptr %24, align 8, !tbaa !50
  %26 = call ptr @app_malloc(i64 noundef %25, ptr noundef @.str.466)
  store ptr %26, ptr %5, align 8, !tbaa !39
  call void @llvm.lifetime.start.p0(i64 32, ptr %6) #11
  call void @llvm.memset.p0.i64(ptr align 16 %6, i8 0, i64 32, i1 false)
  call void @llvm.lifetime.start.p0(i64 8, ptr %7) #11
  store i64 32, ptr %7, align 8, !tbaa !50
  call void @llvm.lifetime.start.p0(i64 4, ptr %8) #11
  store i32 0, ptr %8, align 4, !tbaa !4
  br label %27

27:                                               ; preds = %60, %1
  %28 = load volatile i32, ptr @run, align 4, !tbaa !4
  %29 = icmp ne i32 %28, 0
  br i1 %29, label %30, label %36

30:                                               ; preds = %27
  %31 = load i32, ptr %8, align 4, !tbaa !4
  %32 = load i32, ptr @testmode, align 4, !tbaa !4
  %33 = icmp ne i32 %32, 0
  %34 = select i1 %33, i32 1, i32 2147483647
  %35 = icmp slt i32 %31, %34
  br label %36

36:                                               ; preds = %30, %27
  %37 = phi i1 [ false, %27 ], [ %35, %30 ]
  br i1 %37, label %38, label %63

38:                                               ; preds = %36
  call void @llvm.lifetime.start.p0(i64 8, ptr %9) #11
  %39 = load ptr, ptr %3, align 8, !tbaa !37
  %40 = getelementptr inbounds nuw %struct.loopargs_st, ptr %39, i32 0, i32 44
  %41 = load i32, ptr @testnum, align 4, !tbaa !4
  %42 = zext i32 %41 to i64
  %43 = getelementptr inbounds nuw [111 x i64], ptr %40, i64 0, i64 %42
  %44 = load i64, ptr %43, align 8, !tbaa !50
  store i64 %44, ptr %9, align 8, !tbaa !50
  call void @llvm.lifetime.start.p0(i64 4, ptr %10) #11
  %45 = load ptr, ptr %4, align 8, !tbaa !27
  %46 = load ptr, ptr %5, align 8, !tbaa !39
  %47 = getelementptr inbounds [32 x i8], ptr %6, i64 0, i64 0
  %48 = load i64, ptr %7, align 8, !tbaa !50
  %49 = call i32 @EVP_PKEY_sign(ptr noundef %45, ptr noundef %46, ptr noundef %9, ptr noundef %47, i64 noundef %48)
  store i32 %49, ptr %10, align 4, !tbaa !4
  %50 = load i32, ptr %10, align 4, !tbaa !4
  %51 = icmp sle i32 %50, 0
  br i1 %51, label %52, label %56

52:                                               ; preds = %38
  %53 = load ptr, ptr @bio_err, align 8, !tbaa !53
  %54 = load i32, ptr %8, align 4, !tbaa !4
  %55 = call i32 (ptr, ptr, ...) @BIO_printf(ptr noundef %53, ptr noundef @.str.467, i32 noundef %54)
  call void @dofail()
  store i32 -1, ptr %8, align 4, !tbaa !4
  store i32 2, ptr %11, align 4
  br label %57

56:                                               ; preds = %38
  store i32 0, ptr %11, align 4
  br label %57

57:                                               ; preds = %56, %52
  call void @llvm.lifetime.end.p0(i64 4, ptr %10) #11
  call void @llvm.lifetime.end.p0(i64 8, ptr %9) #11
  %58 = load i32, ptr %11, align 4
  switch i32 %58, label %66 [
    i32 0, label %59
    i32 2, label %63
  ]

59:                                               ; preds = %57
  br label %60

60:                                               ; preds = %59
  %61 = load i32, ptr %8, align 4, !tbaa !4
  %62 = add nsw i32 %61, 1
  store i32 %62, ptr %8, align 4, !tbaa !4
  br label %27, !llvm.loop !298

63:                                               ; preds = %57, %36
  %64 = load ptr, ptr %5, align 8, !tbaa !39
  call void @CRYPTO_free(ptr noundef %64, ptr noundef @.str.112, i32 noundef 1505)
  %65 = load i32, ptr %8, align 4, !tbaa !4
  store i32 1, ptr %11, align 4
  call void @llvm.lifetime.end.p0(i64 4, ptr %8) #11
  call void @llvm.lifetime.end.p0(i64 8, ptr %7) #11
  call void @llvm.lifetime.end.p0(i64 32, ptr %6) #11
  call void @llvm.lifetime.end.p0(i64 8, ptr %5) #11
  call void @llvm.lifetime.end.p0(i64 8, ptr %4) #11
  call void @llvm.lifetime.end.p0(i64 8, ptr %3) #11
  ret i32 %65

66:                                               ; preds = %57
  unreachable
}