; Function Attrs: nounwind uwtable
define internal i32 @SIG_sign_loop(ptr noundef readonly captures(none) %0) #0 {
  %2 = alloca [32 x i8], align 16
  %3 = alloca i64, align 8
  %4 = load ptr, ptr %0, align 8, !tbaa !189
  %5 = getelementptr inbounds nuw i8, ptr %4, i64 9224
  %6 = load i32, ptr @testnum, align 4, !tbaa !13
  %7 = zext i32 %6 to i64
  %8 = getelementptr inbounds nuw [111 x ptr], ptr %5, i64 0, i64 %7
  %9 = load ptr, ptr %8, align 8, !tbaa !15
  %10 = getelementptr inbounds nuw i8, ptr %4, i64 11000
  %11 = getelementptr inbounds nuw [111 x i64], ptr %10, i64 0, i64 %7
  %12 = load i64, ptr %11, align 8, !tbaa !28
  %13 = tail call ptr @app_malloc(i64 noundef %12, ptr noundef nonnull @.str.466) #14
  call void @llvm.lifetime.start.p0(i64 32, ptr nonnull %2) #14
  call void @llvm.memset.p0.i64(ptr noundef nonnull align 16 dereferenceable(32) %2, i8 0, i64 32, i1 false)
  %14 = load volatile i32, ptr @run, align 4, !tbaa !13
  %.not19 = icmp eq i32 %14, 0
  br i1 %.not19, label %.critedge, label %.lr.ph

.lr.ph:                                           ; preds = %1, %28
  %.01320 = phi i32 [ %29, %28 ], [ 0, %1 ]
  %.b = load i1, ptr @testmode, align 4
  %15 = select i1 %.b, i32 1, i32 2147483647
  %16 = icmp samesign ult i32 %.01320, %15
  br i1 %16, label %17, label %.critedge

17:                                               ; preds = %.lr.ph
  call void @llvm.lifetime.start.p0(i64 8, ptr nonnull %3) #14
  %18 = load i32, ptr @testnum, align 4, !tbaa !13
  %19 = zext i32 %18 to i64
  %20 = getelementptr inbounds nuw [111 x i64], ptr %10, i64 0, i64 %19
  %21 = load i64, ptr %20, align 8, !tbaa !28
  store i64 %21, ptr %3, align 8, !tbaa !28
  %22 = call i32 @EVP_PKEY_sign(ptr noundef %9, ptr noundef %13, ptr noundef nonnull %3, ptr noundef nonnull %2, i64 noundef 32) #14
  %23 = icmp slt i32 %22, 1
  br i1 %23, label %24, label %28

24:                                               ; preds = %17
  %25 = load ptr, ptr @bio_err, align 8, !tbaa !19
  %26 = call i32 (ptr, ptr, ...) @BIO_printf(ptr noundef %25, ptr noundef nonnull @.str.467, i32 noundef %.01320) #14
  %27 = load ptr, ptr @bio_err, align 8, !tbaa !19
  call void @ERR_print_errors(ptr noundef %27) #14
  store i1 true, ptr @testmoderesult, align 4
  call void @llvm.lifetime.end.p0(i64 8, ptr nonnull %3) #14
  br label %.critedge

28:                                               ; preds = %17
  call void @llvm.lifetime.end.p0(i64 8, ptr nonnull %3) #14
  %29 = add nuw nsw i32 %.01320, 1
  %30 = load volatile i32, ptr @run, align 4, !tbaa !13
  %.not = icmp eq i32 %30, 0
  br i1 %.not, label %.critedge, label %.lr.ph, !llvm.loop !235

.critedge:                                        ; preds = %.lr.ph, %28, %1, %24
  %.1 = phi i32 [ -1, %24 ], [ 0, %1 ], [ %.01320, %.lr.ph ], [ %29, %28 ]
  call void @CRYPTO_free(ptr noundef %13, ptr noundef nonnull @.str.112, i32 noundef 1505) #14
  call void @llvm.lifetime.end.p0(i64 32, ptr nonnull %2) #14
  ret i32 %.1
}